target datalayout = "e-m:e-p270:32:32-p271:32:32-p272:64:64-i64:64-i128:128-f80:128-n8:16:32:64-S128"
target triple = "x86_64-pc-linux-gnu"

; Function Attrs: nounwind uwtable
define i32 @av_expr_count_func(ptr noundef %0, ptr noundef %1, i32 noundef %2, i32 noundef %3) #0 {
  %5 = alloca ptr, align 8
  %6 = alloca ptr, align 8
  %7 = alloca i32, align 4
  %8 = alloca i32, align 4
  %9 = alloca [3 x i32], align 4
  store ptr %0, ptr %5, align 8, !tbaa !21
  store ptr %1, ptr %6, align 8, !tbaa !50
  store i32 %2, ptr %7, align 4, !tbaa !17
  store i32 %3, ptr %8, align 4, !tbaa !17
  %10 = load ptr, ptr %5, align 8, !tbaa !21
  %11 = load ptr, ptr %6, align 8, !tbaa !50
  %12 = load i32, ptr %7, align 4, !tbaa !17
  store i32 1, ptr %9, align 4, !tbaa !17
  %13 = getelementptr inbounds i32, ptr %9, i64 1
  store i32 3, ptr %13, align 4, !tbaa !17
  %14 = getelementptr inbounds i32, ptr %9, i64 2
  store i32 4, ptr %14, align 4, !tbaa !17
  %15 = load i32, ptr %8, align 4, !tbaa !17
  %16 = sext i32 %15 to i64
  %17 = getelementptr inbounds [3 x i32], ptr %9, i64 0, i64 %16
  %18 = load i32, ptr %17, align 4, !tbaa !17
  %19 = call i32 @expr_count(ptr noundef %10, ptr noundef %11, i32 noundef %12, i32 noundef %18)
  ret i32 %19
}