; Function Attrs: nofree nosync nounwind memory(readwrite, inaccessiblemem: none) uwtable
define range(i32 -22, 1) i32 @av_expr_count_func(ptr noundef readonly captures(address_is_null) %0, ptr noundef captures(address_is_null) %1, i32 noundef %2, i32 noundef %3) local_unnamed_addr #8 {
  %5 = alloca [3 x i32], align 4
  store i32 1, ptr %5, align 4, !tbaa !44
  %6 = getelementptr inbounds nuw i8, ptr %5, i64 4
  store i32 3, ptr %6, align 4, !tbaa !44
  %7 = getelementptr inbounds nuw i8, ptr %5, i64 8
  store i32 4, ptr %7, align 4, !tbaa !44
  %8 = sext i32 %3 to i64
  %9 = getelementptr inbounds [3 x i32], ptr %5, i64 0, i64 %8
  %10 = load i32, ptr %9, align 4, !tbaa !44
  %11 = tail call fastcc i32 @expr_count(ptr noundef %0, ptr noundef %1, i32 noundef %2, i32 noundef %10)
  ret i32 %11
}